; Function Attrs: nounwind uwtable
define internal noundef i64 @php_sqlite3_stream_write(ptr noundef captures(none) %0, ptr noundef %1, i64 noundef %2) #0 {
  %4 = getelementptr inbounds nuw i8, ptr %0, i64 8
  %5 = load ptr, ptr %4, align 8, !tbaa !186
  %6 = getelementptr inbounds nuw i8, ptr %5, i64 24
  %7 = load i32, ptr %6, align 8, !tbaa !123
  %8 = and i32 %7, 1
  %.not = icmp eq i32 %8, 0
  br i1 %.not, label %10, label %9

9:                                                ; preds = %3
  tail call void (ptr, i32, ptr, ...) @php_sqlite3_error(ptr noundef null, i32 noundef 0, ptr noundef nonnull @.str.54)
  br label %33

10:                                               ; preds = %3
  %11 = getelementptr inbounds nuw i8, ptr %5, i64 8
  %12 = load i64, ptr %11, align 8, !tbaa !124
  %13 = add i64 %12, %2
  %14 = getelementptr inbounds nuw i8, ptr %5, i64 16
  %15 = load i64, ptr %14, align 8, !tbaa !125
  %16 = icmp ugt i64 %13, %15
  br i1 %16, label %17, label %18

17:                                               ; preds = %10
  tail call void (ptr, i32, ptr, ...) @php_sqlite3_error(ptr noundef null, i32 noundef 0, ptr noundef nonnull @.str.55)
  br label %33

18:                                               ; preds = %10
  %19 = load ptr, ptr %5, align 8, !tbaa !121
  %20 = trunc i64 %2 to i32
  %21 = trunc i64 %12 to i32
  %22 = tail call i32 @sqlite3_blob_write(ptr noundef %19, ptr noundef %1, i32 noundef %20, i32 noundef %21) #17
  %.not19 = icmp eq i32 %22, 0
  br i1 %.not19, label %23, label %33

23:                                               ; preds = %18
  %24 = load i64, ptr %11, align 8, !tbaa !124
  %25 = add i64 %24, %2
  %26 = load i64, ptr %14, align 8, !tbaa !125
  %.not20 = icmp ult i64 %25, %26
  br i1 %.not20, label %32, label %27

27:                                               ; preds = %23
  %28 = getelementptr inbounds nuw i8, ptr %0, i64 96
  %29 = load i16, ptr %28, align 8
  %30 = or i16 %29, 8
  store i16 %30, ptr %28, align 8
  %31 = load i64, ptr %14, align 8, !tbaa !125
  br label %32

32:                                               ; preds = %23, %27
  %storemerge = phi i64 [ %31, %27 ], [ %25, %23 ]
  store i64 %storemerge, ptr %11, align 8, !tbaa !124
  br label %33

33:                                               ; preds = %18, %32, %17, %9
  %.0 = phi i64 [ -1, %9 ], [ -1, %17 ], [ %2, %32 ], [ -1, %18 ]
  ret i64 %.0
}